target datalayout = "e-m:e-p270:32:32-p271:32:32-p272:64:64-i64:64-i128:128-f80:128-n8:16:32:64-S128"
target triple = "x86_64-pc-linux-gnu"

%struct.FunctionCallInfoBaseData = type { ptr, ptr, ptr, i32, i8, i16, [0 x %struct.NullableDatum] }
%struct.NullableDatum = type { i64, i8 }
%struct.SignTSVector = type { i32, i32, [0 x i8] }
%struct.anon = type { i32, [0 x i8] }

@.str.3 = private unnamed_addr constant [16 x i8] c"%d unique words\00", align 1
@.str.4 = private unnamed_addr constant [14 x i8] c"all true bits\00", align 1
@.str.5 = private unnamed_addr constant [28 x i8] c"%d true bits, %d false bits\00", align 1
@pg_number_of_ones = external constant [256 x i8], align 16
@pg_popcount_optimized = external global ptr, align 8

; Function Attrs: inlinehint nounwind uwtable
define internal i64 @pg_popcount(ptr noundef %0, i32 noundef %1) #4 {
  %3 = alloca i64, align 8
  %4 = alloca ptr, align 8
  %5 = alloca i32, align 4
  %6 = alloca i32, align 4
  %7 = alloca i64, align 8
  %8 = alloca i32, align 4
  store ptr %0, ptr %4, align 8
  store i32 %1, ptr %5, align 4
  call void @llvm.lifetime.start.p0(i64 4, ptr %6) #9
  store i32 8, ptr %6, align 4
  %9 = load i32, ptr %5, align 4
  %10 = load i32, ptr %6, align 4
  %11 = icmp slt i32 %9, %10
  br i1 %11, label %12, label %29

12:                                               ; preds = %2
  call void @llvm.lifetime.start.p0(i64 8, ptr %7) #9
  store i64 0, ptr %7, align 8
  br label %13

13:                                               ; preds = %17, %12
  %14 = load i32, ptr %5, align 4
  %15 = add i32 %14, -1
  store i32 %15, ptr %5, align 4
  %16 = icmp ne i32 %14, 0
  br i1 %16, label %17, label %27

17:                                               ; preds = %13
  %18 = load ptr, ptr %4, align 8
  %19 = getelementptr inbounds nuw i8, ptr %18, i32 1
  store ptr %19, ptr %4, align 8
  %20 = load i8, ptr %18, align 1
  %21 = zext i8 %20 to i64
  %22 = getelementptr inbounds nuw [256 x i8], ptr @pg_number_of_ones, i64 0, i64 %21
  %23 = load i8, ptr %22, align 1
  %24 = zext i8 %23 to i64
  %25 = load i64, ptr %7, align 8
  %26 = add i64 %25, %24
  store i64 %26, ptr %7, align 8
  br label %13, !llvm.loop !27

27:                                               ; preds = %13
  %28 = load i64, ptr %7, align 8
  store i64 %28, ptr %3, align 8
  store i32 1, ptr %8, align 4
  call void @llvm.lifetime.end.p0(i64 8, ptr %7) #9
  br label %34

29:                                               ; preds = %2
  %30 = load ptr, ptr @pg_popcount_optimized, align 8
  %31 = load ptr, ptr %4, align 8
  %32 = load i32, ptr %5, align 4
  %33 = call i64 %30(ptr noundef %31, i32 noundef %32)
  store i64 %33, ptr %3, align 8
  store i32 1, ptr %8, align 4
  br label %34

34:                                               ; preds = %29, %27
  call void @llvm.lifetime.end.p0(i64 4, ptr %6) #9
  %35 = load i64, ptr %3, align 8
  ret i64 %35
}

; Function Attrs: inlinehint nounwind uwtable
define internal i64 @PointerGetDatum(ptr noundef %0) #4 {
  %2 = alloca ptr, align 8
  store ptr %0, ptr %2, align 8
  %3 = load ptr, ptr %2, align 8
  %4 = ptrtoint ptr %3 to i64
  ret i64 %4
}

; Function Attrs: nounwind uwtable
define internal i32 @sizebitvec(ptr noundef %0, i32 noundef %1) #0 {
  %3 = alloca ptr, align 8
  %4 = alloca i32, align 4
  store ptr %0, ptr %3, align 8
  store i32 %1, ptr %4, align 4
  %5 = load ptr, ptr %3, align 8
  %6 = load i32, ptr %4, align 4
  %7 = call i64 @pg_popcount(ptr noundef %5, i32 noundef %6)
  %8 = trunc i64 %7 to i32
  ret i32 %8
}

; Function Attrs: inlinehint nounwind uwtable
define internal ptr @DatumGetPointer(i64 noundef %0) #4 {
  %2 = alloca i64, align 8
  store i64 %0, ptr %2, align 8
  %3 = load i64, ptr %2, align 8
  %4 = inttoptr i64 %3 to ptr
  ret ptr %4
}

; Function Attrs: nounwind uwtable
define dso_local i64 @gtsvectorout(ptr noundef %0) #0 {
  %2 = alloca ptr, align 8
  %3 = alloca ptr, align 8
  %4 = alloca ptr, align 8
  %5 = alloca i32, align 4
  %6 = alloca i32, align 4
  store ptr %0, ptr %2, align 8
  call void @llvm.lifetime.start.p0(i64 8, ptr %3) #9
  %7 = load ptr, ptr %2, align 8
  %8 = getelementptr inbounds nuw %struct.FunctionCallInfoBaseData, ptr %7, i32 0, i32 6
  %9 = getelementptr inbounds [0 x %struct.NullableDatum], ptr %8, i64 0, i64 0
  %10 = getelementptr inbounds nuw %struct.NullableDatum, ptr %9, i32 0, i32 0
  %11 = load i64, ptr %10, align 8
  %12 = call ptr @DatumGetPointer(i64 noundef %11)
  %13 = call ptr @pg_detoast_datum(ptr noundef %12)
  store ptr %13, ptr %3, align 8
  call void @llvm.lifetime.start.p0(i64 8, ptr %4) #9
  %14 = load ptr, ptr %3, align 8
  %15 = getelementptr inbounds nuw %struct.SignTSVector, ptr %14, i32 0, i32 1
  %16 = load i32, ptr %15, align 4
  %17 = and i32 %16, 1
  %18 = icmp ne i32 %17, 0
  br i1 %18, label %19, label %30

19:                                               ; preds = %1
  %20 = load ptr, ptr %3, align 8
  %21 = getelementptr inbounds nuw %struct.anon, ptr %20, i32 0, i32 0
  %22 = load i32, ptr %21, align 4
  %23 = lshr i32 %22, 2
  %24 = and i32 %23, 1073741823
  %25 = zext i32 %24 to i64
  %26 = sub i64 %25, 8
  %27 = udiv i64 %26, 4
  %28 = trunc i64 %27 to i32
  %29 = call ptr (ptr, ...) @psprintf(ptr noundef @.str.3, i32 noundef %28)
  store ptr %29, ptr %4, align 8
  br label %58

30:                                               ; preds = %1
  %31 = load ptr, ptr %3, align 8
  %32 = getelementptr inbounds nuw %struct.SignTSVector, ptr %31, i32 0, i32 1
  %33 = load i32, ptr %32, align 4
  %34 = and i32 %33, 4
  %35 = icmp ne i32 %34, 0
  br i1 %35, label %36, label %38

36:                                               ; preds = %30
  %37 = call ptr @pstrdup(ptr noundef @.str.4)
  store ptr %37, ptr %4, align 8
  br label %57

38:                                               ; preds = %30
  call void @llvm.lifetime.start.p0(i64 4, ptr %5) #9
  %39 = load ptr, ptr %3, align 8
  %40 = getelementptr inbounds nuw %struct.anon, ptr %39, i32 0, i32 0
  %41 = load i32, ptr %40, align 4
  %42 = lshr i32 %41, 2
  %43 = and i32 %42, 1073741823
  %44 = zext i32 %43 to i64
  %45 = sub i64 %44, 8
  %46 = trunc i64 %45 to i32
  store i32 %46, ptr %5, align 4
  call void @llvm.lifetime.start.p0(i64 4, ptr %6) #9
  %47 = load ptr, ptr %3, align 8
  %48 = getelementptr inbounds nuw i8, ptr %47, i64 8
  %49 = load i32, ptr %5, align 4
  %50 = call i32 @sizebitvec(ptr noundef %48, i32 noundef %49)
  store i32 %50, ptr %6, align 4
  %51 = load i32, ptr %6, align 4
  %52 = load i32, ptr %5, align 4
  %53 = mul i32 %52, 8
  %54 = load i32, ptr %6, align 4
  %55 = sub i32 %53, %54
  %56 = call ptr (ptr, ...) @psprintf(ptr noundef @.str.5, i32 noundef %51, i32 noundef %55)
  store ptr %56, ptr %4, align 8
  call void @llvm.lifetime.end.p0(i64 4, ptr %6) #9
  call void @llvm.lifetime.end.p0(i64 4, ptr %5) #9
  br label %57

57:                                               ; preds = %38, %36
  br label %58

58:                                               ; preds = %57, %19
  br label %59

59:                                               ; preds = %58
  %60 = load ptr, ptr %3, align 8
  %61 = load ptr, ptr %2, align 8
  %62 = getelementptr inbounds nuw %struct.FunctionCallInfoBaseData, ptr %61, i32 0, i32 6
  %63 = getelementptr inbounds [0 x %struct.NullableDatum], ptr %62, i64 0, i64 0
  %64 = getelementptr inbounds nuw %struct.NullableDatum, ptr %63, i32 0, i32 0
  %65 = load i64, ptr %64, align 8
  %66 = call ptr @DatumGetPointer(i64 noundef %65)
  %67 = icmp ne ptr %60, %66
  br i1 %67, label %68, label %70

68:                                               ; preds = %59
  %69 = load ptr, ptr %3, align 8
  call void @pfree(ptr noundef %69)
  br label %70

70:                                               ; preds = %68, %59
  br label %71

71:                                               ; preds = %70
  br label %72

72:                                               ; preds = %71
  %73 = load ptr, ptr %4, align 8
  %74 = call i64 @PointerGetDatum(ptr noundef %73)
  call void @llvm.lifetime.end.p0(i64 8, ptr %4) #9
  call void @llvm.lifetime.end.p0(i64 8, ptr %3) #9
  ret i64 %74
}