; Function Attrs: nounwind uwtable
define dso_local i64 @gtsvectorout(ptr noundef readonly captures(none) %0) local_unnamed_addr #4 {
  %2 = getelementptr inbounds nuw i8, ptr %0, i64 32
  %3 = load i64, ptr %2, align 8
  %4 = inttoptr i64 %3 to ptr
  %5 = tail call ptr @pg_detoast_datum(ptr noundef %4) #13
  %6 = getelementptr inbounds nuw i8, ptr %5, i64 4
  %7 = load i32, ptr %6, align 4
  %8 = and i32 %7, 1
  %.not = icmp eq i32 %8, 0
  br i1 %.not, label %17, label %9

9:                                                ; preds = %1
  %10 = load i32, ptr %5, align 4
  %11 = lshr i32 %10, 2
  %12 = zext nneg i32 %11 to i64
  %13 = add nuw nsw i64 %12, 17179869176
  %14 = lshr i64 %13, 2
  %15 = trunc i64 %14 to i32
  %16 = tail call ptr (ptr, ...) @psprintf(ptr noundef nonnull @.str.3, i32 noundef %15) #13
  br label %42

17:                                               ; preds = %1
  %18 = and i32 %7, 4
  %.not14 = icmp eq i32 %18, 0
  br i1 %.not14, label %21, label %19

19:                                               ; preds = %17
  %20 = tail call ptr @pstrdup(ptr noundef nonnull @.str.4) #13
  br label %42

21:                                               ; preds = %17
  %22 = load i32, ptr %5, align 4
  %23 = lshr i32 %22, 2
  %24 = add nsw i32 %23, -8
  %25 = getelementptr inbounds nuw i8, ptr %5, i64 8
  %26 = icmp ult i32 %22, 64
  br i1 %26, label %.preheader.i.i, label %35

.preheader.i.i:                                   ; preds = %21
  %.not12.i.i = icmp eq i32 %24, 0
  br i1 %.not12.i.i, label %sizebitvec.exit, label %.lr.ph.i.i

.lr.ph.i.i:                                       ; preds = %.preheader.i.i, %.lr.ph.i.i
  %.015.i.i = phi i64 [ %34, %.lr.ph.i.i ], [ 0, %.preheader.i.i ]
  %.0914.i.i = phi i32 [ %27, %.lr.ph.i.i ], [ %24, %.preheader.i.i ]
  %.01013.i.i = phi ptr [ %28, %.lr.ph.i.i ], [ %25, %.preheader.i.i ]
  %27 = add i32 %.0914.i.i, -1
  %28 = getelementptr inbounds nuw i8, ptr %.01013.i.i, i64 1
  %29 = load i8, ptr %.01013.i.i, align 1
  %30 = zext i8 %29 to i64
  %31 = getelementptr inbounds nuw [256 x i8], ptr @pg_number_of_ones, i64 0, i64 %30
  %32 = load i8, ptr %31, align 1
  %33 = zext i8 %32 to i64
  %34 = add i64 %.015.i.i, %33
  %.not.i.i = icmp eq i32 %27, 0
  br i1 %.not.i.i, label %sizebitvec.exit, label %.lr.ph.i.i, !llvm.loop !4

35:                                               ; preds = %21
  %36 = load ptr, ptr @pg_popcount_optimized, align 8
  %37 = tail call i64 %36(ptr noundef nonnull %25, i32 noundef %24) #13
  br label %sizebitvec.exit

sizebitvec.exit:                                  ; preds = %.lr.ph.i.i, %.preheader.i.i, %35
  %.08.i.i = phi i64 [ %37, %35 ], [ 0, %.preheader.i.i ], [ %34, %.lr.ph.i.i ]
  %38 = trunc i64 %.08.i.i to i32
  %39 = shl i32 %24, 3
  %40 = sub i32 %39, %38
  %41 = tail call ptr (ptr, ...) @psprintf(ptr noundef nonnull @.str.5, i32 noundef %38, i32 noundef %40) #13
  br label %42

42:                                               ; preds = %9, %sizebitvec.exit, %19
  %.0 = phi ptr [ %16, %9 ], [ %20, %19 ], [ %41, %sizebitvec.exit ]
  %43 = load i64, ptr %2, align 8
  %44 = inttoptr i64 %43 to ptr
  %.not15 = icmp eq ptr %5, %44
  br i1 %.not15, label %46, label %45

45:                                               ; preds = %42
  tail call void @pfree(ptr noundef %5) #13
  br label %46

46:                                               ; preds = %45, %42
  %47 = ptrtoint ptr %.0 to i64
  ret i64 %47
}